
if.o:     file format pe-x86-64


Disassembly of section .text:

0000000000000000 <main>:
   0:	55                   	push   rbp
   1:	48 89 e5             	mov    rbp,rsp
   4:	48 83 ec 30          	sub    rsp,0x30
   8:	e8 00 00 00 00       	call   d <main+0xd>
   d:	48 8d 05 00 00 00 00 	lea    rax,[rip+0x0]        # 14 <main+0x14>
  14:	48 89 c1             	mov    rcx,rax
  17:	e8 00 00 00 00       	call   1c <main+0x1c>
  1c:	48 8d 45 fc          	lea    rax,[rbp-0x4]
  20:	48 8d 0d 1d 00 00 00 	lea    rcx,[rip+0x1d]        # 44 <main+0x44>
  27:	48 89 c2             	mov    rdx,rax
  2a:	e8 00 00 00 00       	call   2f <main+0x2f>
  2f:	8b 45 fc             	mov    eax,DWORD PTR [rbp-0x4]
  32:	85 c0                	test   eax,eax
  34:	78 08                	js     3e <main+0x3e>
  36:	8b 45 fc             	mov    eax,DWORD PTR [rbp-0x4]
  39:	83 f8 64             	cmp    eax,0x64
  3c:	7e 14                	jle    52 <main+0x52>
  3e:	48 8d 05 20 00 00 00 	lea    rax,[rip+0x20]        # 65 <main+0x65>
  45:	48 89 c1             	mov    rcx,rax
  48:	e8 00 00 00 00       	call   4d <main+0x4d>
  4d:	e9 fc 00 00 00       	jmp    14e <main+0x14e>
  52:	8b 45 fc             	mov    eax,DWORD PTR [rbp-0x4]
  55:	83 f8 4f             	cmp    eax,0x4f
  58:	7e 14                	jle    6e <main+0x6e>
  5a:	48 8d 05 57 00 00 00 	lea    rax,[rip+0x57]        # b8 <main+0xb8>
  61:	48 89 c1             	mov    rcx,rax
  64:	e8 00 00 00 00       	call   69 <main+0x69>
  69:	e9 e0 00 00 00       	jmp    14e <main+0x14e>
  6e:	8b 45 fc             	mov    eax,DWORD PTR [rbp-0x4]
  71:	83 f8 4a             	cmp    eax,0x4a
  74:	7e 14                	jle    8a <main+0x8a>
  76:	48 8d 05 61 00 00 00 	lea    rax,[rip+0x61]        # de <main+0xde>
  7d:	48 89 c1             	mov    rcx,rax
  80:	e8 00 00 00 00       	call   85 <main+0x85>
  85:	e9 c4 00 00 00       	jmp    14e <main+0x14e>
  8a:	8b 45 fc             	mov    eax,DWORD PTR [rbp-0x4]
  8d:	83 f8 45             	cmp    eax,0x45
  90:	7e 14                	jle    a6 <main+0xa6>
  92:	48 8d 05 6a 00 00 00 	lea    rax,[rip+0x6a]        # 103 <main+0x103>
  99:	48 89 c1             	mov    rcx,rax
  9c:	e8 00 00 00 00       	call   a1 <main+0xa1>
  a1:	e9 a8 00 00 00       	jmp    14e <main+0x14e>
  a6:	8b 45 fc             	mov    eax,DWORD PTR [rbp-0x4]
  a9:	83 f8 40             	cmp    eax,0x40
  ac:	7e 14                	jle    c2 <main+0xc2>
  ae:	48 8d 05 74 00 00 00 	lea    rax,[rip+0x74]        # 129 <main+0x129>
  b5:	48 89 c1             	mov    rcx,rax
  b8:	e8 00 00 00 00       	call   bd <main+0xbd>
  bd:	e9 8c 00 00 00       	jmp    14e <main+0x14e>
  c2:	8b 45 fc             	mov    eax,DWORD PTR [rbp-0x4]
  c5:	83 f8 3b             	cmp    eax,0x3b
  c8:	7e 11                	jle    db <main+0xdb>
  ca:	48 8d 05 7e 00 00 00 	lea    rax,[rip+0x7e]        # 14f <main+0x14f>
  d1:	48 89 c1             	mov    rcx,rax
  d4:	e8 00 00 00 00       	call   d9 <main+0xd9>
  d9:	eb 73                	jmp    14e <main+0x14e>
  db:	8b 45 fc             	mov    eax,DWORD PTR [rbp-0x4]
  de:	83 f8 36             	cmp    eax,0x36
  e1:	7e 11                	jle    f4 <main+0xf4>
  e3:	48 8d 05 87 00 00 00 	lea    rax,[rip+0x87]        # 171 <main+0x171>
  ea:	48 89 c1             	mov    rcx,rax
  ed:	e8 00 00 00 00       	call   f2 <main+0xf2>
  f2:	eb 5a                	jmp    14e <main+0x14e>
  f4:	8b 45 fc             	mov    eax,DWORD PTR [rbp-0x4]
  f7:	83 f8 31             	cmp    eax,0x31
  fa:	7e 11                	jle    10d <main+0x10d>
  fc:	48 8d 05 91 00 00 00 	lea    rax,[rip+0x91]        # 194 <main+0x194>
 103:	48 89 c1             	mov    rcx,rax
 106:	e8 00 00 00 00       	call   10b <main+0x10b>
 10b:	eb 41                	jmp    14e <main+0x14e>
 10d:	8b 45 fc             	mov    eax,DWORD PTR [rbp-0x4]
 110:	83 f8 2c             	cmp    eax,0x2c
 113:	7e 11                	jle    126 <main+0x126>
 115:	48 8d 05 9b 00 00 00 	lea    rax,[rip+0x9b]        # 1b7 <main+0x1b7>
 11c:	48 89 c1             	mov    rcx,rax
 11f:	e8 00 00 00 00       	call   124 <main+0x124>
 124:	eb 28                	jmp    14e <main+0x14e>
 126:	8b 45 fc             	mov    eax,DWORD PTR [rbp-0x4]
 129:	83 f8 27             	cmp    eax,0x27
 12c:	7e 11                	jle    13f <main+0x13f>
 12e:	48 8d 05 a4 00 00 00 	lea    rax,[rip+0xa4]        # 1d9 <main+0x1d9>
 135:	48 89 c1             	mov    rcx,rax
 138:	e8 00 00 00 00       	call   13d <main+0x13d>
 13d:	eb 0f                	jmp    14e <main+0x14e>
 13f:	48 8d 05 ad 00 00 00 	lea    rax,[rip+0xad]        # 1f3 <main+0x1f3>
 146:	48 89 c1             	mov    rcx,rax
 149:	e8 00 00 00 00       	call   14e <main+0x14e>
 14e:	b8 00 00 00 00       	mov    eax,0x0
 153:	48 83 c4 30          	add    rsp,0x30
 157:	5d                   	pop    rbp
 158:	c3                   	ret
 159:	90                   	nop
 15a:	90                   	nop
 15b:	90                   	nop
 15c:	90                   	nop
 15d:	90                   	nop
 15e:	90                   	nop
 15f:	90                   	nop
